; Function Attrs: null_pointer_is_valid sspstrong uwtable
define hidden i32 @mapi_dissect_struct_SGuidArray(ptr noundef %0, i32 noundef %1, ptr noundef %2, ptr noundef %3, ptr noundef %4, ptr noundef %5, i32 noundef %6, i32 %7) local_unnamed_addr #0 {
  %9 = getelementptr inbounds nuw i8, ptr %4, i64 25
  %10 = load i8, ptr %9, align 1, !range !9, !noundef !10
  %11 = trunc nuw i8 %10 to i1
  %12 = and i32 %1, 3
  %.not = icmp eq i32 %12, 0
  %or.cond = or i1 %.not, %11
  %13 = and i32 %1, -4
  %14 = add i32 %13, 4
  %.0 = select i1 %or.cond, i32 %1, i32 %14
  %.not32 = icmp eq ptr %3, null
  br i1 %.not32, label %19, label %15

15:                                               ; preds = %8
  %16 = tail call ptr @proto_tree_add_item(ptr noundef nonnull %3, i32 noundef %6, ptr noundef %0, i32 noundef %.0, i32 noundef -1, i32 noundef 0)
  %17 = load i32, ptr @ett_mapi_mapi_SGuidArray, align 4
  %18 = tail call ptr @proto_item_add_subtree(ptr noundef %16, i32 noundef %17)
  br label %19

19:                                               ; preds = %15, %8
  %.030 = phi ptr [ %16, %15 ], [ null, %8 ]
  %.029 = phi ptr [ %18, %15 ], [ null, %8 ]
  %20 = load i32, ptr @hf_mapi_mapi_SGuidArray_cValues, align 4
  %21 = tail call i32 @PIDL_dissect_uint32(ptr noundef %0, i32 noundef %.0, ptr noundef %2, ptr noundef %.029, ptr noundef %4, ptr noundef %5, i32 noundef %20, i32 noundef 0)
  %22 = tail call i32 @dissect_ndr_ucarray(ptr noundef %0, i32 noundef %21, ptr noundef %2, ptr noundef %.029, ptr noundef %4, ptr noundef %5, ptr noundef nonnull @mapi_dissect_element_SGuidArray_lpguid_)
  %23 = sub i32 %22, %.0
  tail call void @proto_item_set_len(ptr noundef %.030, i32 noundef %23)
  %24 = getelementptr inbounds nuw i8, ptr %4, i64 64
  %25 = load ptr, ptr %24, align 8
  %26 = getelementptr inbounds nuw i8, ptr %25, i64 96
  %27 = load i32, ptr %26, align 8
  %28 = and i32 %27, 1
  %.not33 = icmp eq i32 %28, 0
  br i1 %.not33, label %36, label %29

29:                                               ; preds = %19
  %30 = load i8, ptr %9, align 1, !range !9, !noundef !10
  %31 = trunc nuw i8 %30 to i1
  %32 = and i32 %22, 3
  %.not34 = icmp eq i32 %32, 0
  %or.cond35 = or i1 %.not34, %31
  br i1 %or.cond35, label %36, label %33

33:                                               ; preds = %29
  %34 = and i32 %22, -4
  %35 = add i32 %34, 4
  br label %36

36:                                               ; preds = %29, %33, %19
  %.1 = phi i32 [ %22, %29 ], [ %35, %33 ], [ %22, %19 ]
  ret i32 %.1
}